target datalayout = "e-m:e-p270:32:32-p271:32:32-p272:64:64-i64:64-i128:128-f80:128-n8:16:32:64-S128"
target triple = "x86_64-pc-linux-gnu"

@comment_line_str = external global ptr, align 8
@cut_line = internal constant [54 x i8] c"------------------------ >8 ------------------------\0A\00", align 16
@.str.9 = private unnamed_addr constant [77 x i8] c"Do not modify or remove the line above.\0AEverything below it will be ignored.\00", align 1
@.str.10 = private unnamed_addr constant [3 x i8] c"%s\00", align 1
@.str.29 = private unnamed_addr constant [1 x i8] zeroinitializer, align 1
@git_gettext_enabled = external global i32, align 4

; Function Attrs: inlinehint nounwind uwtable
define internal ptr @_(ptr noundef %0) #8 {
  %2 = alloca ptr, align 8
  %3 = alloca ptr, align 8
  store ptr %0, ptr %3, align 8, !tbaa !9
  %4 = load ptr, ptr %3, align 8, !tbaa !9
  %5 = load i8, ptr %4, align 1, !tbaa !30
  %6 = icmp ne i8 %5, 0
  br i1 %6, label %8, label %7

7:                                                ; preds = %1
  store ptr @.str.29, ptr %2, align 8
  br label %16

8:                                                ; preds = %1
  %9 = load i32, ptr @git_gettext_enabled, align 4, !tbaa !11
  %10 = icmp ne i32 %9, 0
  br i1 %10, label %13, label %11

11:                                               ; preds = %8
  %12 = load ptr, ptr %3, align 8, !tbaa !9
  store ptr %12, ptr %2, align 8
  br label %16

13:                                               ; preds = %8
  %14 = load ptr, ptr %3, align 8, !tbaa !9
  %15 = call ptr @dcgettext(ptr noundef null, ptr noundef %14, i32 noundef 5) #12
  store ptr %15, ptr %2, align 8
  br label %16

16:                                               ; preds = %13, %11, %7
  %17 = load ptr, ptr %2, align 8
  ret ptr %17
}

; Function Attrs: nounwind uwtable
define dso_local void @wt_status_append_cut_line(ptr noundef %0) #0 {
  %2 = alloca ptr, align 8
  %3 = alloca ptr, align 8
  store ptr %0, ptr %2, align 8, !tbaa !186
  call void @llvm.lifetime.start.p0(i64 8, ptr %3) #12
  %4 = call ptr @_(ptr noundef @.str.9)
  store ptr %4, ptr %3, align 8, !tbaa !9
  %5 = load ptr, ptr %2, align 8, !tbaa !186
  %6 = load ptr, ptr @comment_line_str, align 8, !tbaa !9
  call void (ptr, ptr, ptr, ...) @strbuf_commented_addf(ptr noundef %5, ptr noundef %6, ptr noundef @.str.10, ptr noundef @cut_line)
  %7 = load ptr, ptr %2, align 8, !tbaa !186
  %8 = load ptr, ptr %3, align 8, !tbaa !9
  %9 = load ptr, ptr %3, align 8, !tbaa !9
  %10 = call i64 @strlen(ptr noundef %9) #13
  %11 = load ptr, ptr @comment_line_str, align 8, !tbaa !9
  call void @strbuf_add_commented_lines(ptr noundef %7, ptr noundef %8, i64 noundef %10, ptr noundef %11)
  call void @llvm.lifetime.end.p0(i64 8, ptr %3) #12
  ret void
}