; Function Attrs: nounwind uwtable
define dso_local void @wt_status_append_cut_line(ptr noundef %0) local_unnamed_addr #0 {
  %2 = load i32, ptr @git_gettext_enabled, align 4, !tbaa !128
  %.not4.i = icmp eq i32 %2, 0
  br i1 %.not4.i, label %_.exit, label %3

3:                                                ; preds = %1
  %4 = tail call ptr @dcgettext(ptr noundef null, ptr noundef nonnull @.str.9, i32 noundef 5) #20
  br label %_.exit

_.exit:                                           ; preds = %1, %3
  %.0.i = phi ptr [ %4, %3 ], [ @.str.9, %1 ]
  %5 = load ptr, ptr @comment_line_str, align 8, !tbaa !22
  tail call void (ptr, ptr, ptr, ...) @strbuf_commented_addf(ptr noundef %0, ptr noundef %5, ptr noundef nonnull @.str.10, ptr noundef nonnull @cut_line) #20
  %6 = tail call i64 @strlen(ptr noundef nonnull dereferenceable(1) %.0.i) #21
  %7 = load ptr, ptr @comment_line_str, align 8, !tbaa !22
  tail call void @strbuf_add_commented_lines(ptr noundef %0, ptr noundef nonnull %.0.i, i64 noundef %6, ptr noundef %7) #20
  ret void
}